target datalayout = "e-m:e-p270:32:32-p271:32:32-p272:64:64-i64:64-i128:128-f80:128-n8:16:32:64-S128"
target triple = "x86_64-pc-linux-gnu"

%struct.nghttp2_frame_hd = type { i64, i32, i8, i8, i8 }

; Function Attrs: nounwind uwtable
define hidden void @nghttp2_frame_pack_frame_hd(ptr noundef %0, ptr noundef %1) #0 {
  %3 = alloca ptr, align 8
  %4 = alloca ptr, align 8
  store ptr %0, ptr %3, align 8, !tbaa !3
  store ptr %1, ptr %4, align 8, !tbaa !8
  %5 = load ptr, ptr %3, align 8, !tbaa !3
  %6 = getelementptr inbounds i8, ptr %5, i64 0
  %7 = load ptr, ptr %4, align 8, !tbaa !8
  %8 = getelementptr inbounds nuw %struct.nghttp2_frame_hd, ptr %7, i32 0, i32 0
  %9 = load i64, ptr %8, align 8, !tbaa !9
  %10 = shl i64 %9, 8
  %11 = trunc i64 %10 to i32
  call void @nghttp2_put_uint32be(ptr noundef %6, i32 noundef %11)
  %12 = load ptr, ptr %4, align 8, !tbaa !8
  %13 = getelementptr inbounds nuw %struct.nghttp2_frame_hd, ptr %12, i32 0, i32 2
  %14 = load i8, ptr %13, align 4, !tbaa !13
  %15 = load ptr, ptr %3, align 8, !tbaa !3
  %16 = getelementptr inbounds i8, ptr %15, i64 3
  store i8 %14, ptr %16, align 1, !tbaa !14
  %17 = load ptr, ptr %4, align 8, !tbaa !8
  %18 = getelementptr inbounds nuw %struct.nghttp2_frame_hd, ptr %17, i32 0, i32 3
  %19 = load i8, ptr %18, align 1, !tbaa !15
  %20 = load ptr, ptr %3, align 8, !tbaa !3
  %21 = getelementptr inbounds i8, ptr %20, i64 4
  store i8 %19, ptr %21, align 1, !tbaa !14
  %22 = load ptr, ptr %3, align 8, !tbaa !3
  %23 = getelementptr inbounds i8, ptr %22, i64 5
  %24 = load ptr, ptr %4, align 8, !tbaa !8
  %25 = getelementptr inbounds nuw %struct.nghttp2_frame_hd, ptr %24, i32 0, i32 1
  %26 = load i32, ptr %25, align 8, !tbaa !16
  call void @nghttp2_put_uint32be(ptr noundef %23, i32 noundef %26)
  ret void
}