; Function Attrs: nounwind uwtable
define hidden void @nghttp2_frame_pack_frame_hd(ptr noundef %0, ptr noundef readonly captures(none) %1) local_unnamed_addr #0 {
  %3 = load i64, ptr %1, align 8, !tbaa !3
  %.tr = trunc i64 %3 to i32
  %4 = shl i32 %.tr, 8
  tail call void @nghttp2_put_uint32be(ptr noundef %0, i32 noundef %4) #18
  %5 = getelementptr inbounds nuw i8, ptr %1, i64 12
  %6 = load i8, ptr %5, align 4, !tbaa !9
  %7 = getelementptr inbounds nuw i8, ptr %0, i64 3
  store i8 %6, ptr %7, align 1, !tbaa !10
  %8 = getelementptr inbounds nuw i8, ptr %1, i64 13
  %9 = load i8, ptr %8, align 1, !tbaa !11
  %10 = getelementptr inbounds nuw i8, ptr %0, i64 4
  store i8 %9, ptr %10, align 1, !tbaa !10
  %11 = getelementptr inbounds nuw i8, ptr %0, i64 5
  %12 = getelementptr inbounds nuw i8, ptr %1, i64 8
  %13 = load i32, ptr %12, align 8, !tbaa !12
  tail call void @nghttp2_put_uint32be(ptr noundef nonnull %11, i32 noundef %13) #18
  ret void
}